target datalayout = "e-m:e-p270:32:32-p271:32:32-p272:64:64-i64:64-i128:128-f80:128-n8:16:32:64-S128"
target triple = "x86_64-pc-linux-gnu"

%class.CodeHeap = type { %class.VirtualSpace, %class.VirtualSpace, i64, i64, i64, i32, i64, ptr, ptr, i64, i32, i64, ptr, i32, i32, i32, i32, i32, i32 }
%class.VirtualSpace = type { ptr, ptr, ptr, ptr, i8, i8, ptr, ptr, ptr, ptr, ptr, ptr, i64, i64, i64 }
%class.HeapBlock = type { %union.anon }
%union.anon = type { [1 x i64] }
%"struct.HeapBlock::Header" = type { i32, i8 }

; Function Attrs: mustprogress nounwind uwtable
define linkonce_odr hidden noundef i64 @_ZNK9HeapBlock6lengthEv(ptr noundef nonnull align 8 dereferenceable(8) %0) #1 comdat align 2 {
  %2 = alloca ptr, align 8
  store ptr %0, ptr %2, align 8
  %3 = load ptr, ptr %2, align 8
  %4 = getelementptr inbounds %class.HeapBlock, ptr %3, i32 0, i32 0
  %5 = getelementptr inbounds %"struct.HeapBlock::Header", ptr %4, i32 0, i32 0
  %6 = load i32, ptr %5, align 8
  %7 = zext i32 %6 to i64
  ret i64 %7
}

; Function Attrs: mustprogress nounwind uwtable
define hidden noundef ptr @_ZN8CodeHeap15following_blockEP9FreeBlock(ptr noundef nonnull align 8 dereferenceable(336) %0, ptr noundef %1) #1 align 2 {
  %3 = alloca ptr, align 8
  %4 = alloca ptr, align 8
  store ptr %0, ptr %3, align 8
  store ptr %1, ptr %4, align 8
  %5 = load ptr, ptr %3, align 8
  %6 = load ptr, ptr %4, align 8
  %7 = getelementptr inbounds %class.CodeHeap, ptr %5, i32 0, i32 4
  %8 = load i64, ptr %7, align 8
  %9 = load ptr, ptr %4, align 8
  %10 = call noundef i64 @_ZNK9HeapBlock6lengthEv(ptr noundef nonnull align 8 dereferenceable(8) %9)
  %11 = mul i64 %8, %10
  %12 = getelementptr inbounds i8, ptr %6, i64 %11
  ret ptr %12
}