; Function Attrs: mustprogress nofree norecurse nosync nounwind willreturn memory(argmem: read) uwtable
define hidden noundef ptr @_ZN8CodeHeap15following_blockEP9FreeBlock(ptr nocapture noundef nonnull readonly align 8 dereferenceable(336) %0, ptr noundef readonly %1) local_unnamed_addr #9 align 2 {
  %3 = getelementptr inbounds i8, ptr %0, i64 240
  %4 = load i64, ptr %3, align 8
  %5 = load i32, ptr %1, align 8
  %6 = zext i32 %5 to i64
  %7 = mul i64 %4, %6
  %8 = getelementptr inbounds i8, ptr %1, i64 %7
  ret ptr %8
}